target datalayout = "e-m:e-p270:32:32-p271:32:32-p272:64:64-i64:64-i128:128-f80:128-n8:16:32:64-S128"
target triple = "x86_64-pc-linux-gnu"

%struct.Vec_Ptr_t_ = type { i32, i32, ptr }
%struct.Vec_Flt_t_ = type { i32, i32, ptr }

; Function Attrs: nounwind uwtable
define internal void @Vec_FltWriteEntry(ptr noundef %0, i32 noundef %1, float noundef %2) #0 {
  %4 = alloca ptr, align 8
  %5 = alloca i32, align 4
  %6 = alloca float, align 4
  store ptr %0, ptr %4, align 8
  store i32 %1, ptr %5, align 4
  store float %2, ptr %6, align 4
  %7 = load float, ptr %6, align 4
  %8 = load ptr, ptr %4, align 8
  %9 = getelementptr inbounds %struct.Vec_Flt_t_, ptr %8, i32 0, i32 2
  %10 = load ptr, ptr %9, align 8
  %11 = load i32, ptr %5, align 4
  %12 = sext i32 %11 to i64
  %13 = getelementptr inbounds float, ptr %10, i64 %12
  store float %7, ptr %13, align 4
  ret void
}

; Function Attrs: nounwind uwtable
define internal float @Vec_FltEntry(ptr noundef %0, i32 noundef %1) #0 {
  %3 = alloca ptr, align 8
  %4 = alloca i32, align 4
  store ptr %0, ptr %3, align 8
  store i32 %1, ptr %4, align 4
  %5 = load ptr, ptr %3, align 8
  %6 = getelementptr inbounds %struct.Vec_Flt_t_, ptr %5, i32 0, i32 2
  %7 = load ptr, ptr %6, align 8
  %8 = load i32, ptr %4, align 4
  %9 = sext i32 %8 to i64
  %10 = getelementptr inbounds float, ptr %7, i64 %9
  %11 = load float, ptr %10, align 4
  ret float %11
}

; Function Attrs: nounwind uwtable
define internal i32 @Vec_FltSize(ptr noundef %0) #0 {
  %2 = alloca ptr, align 8
  store ptr %0, ptr %2, align 8
  %3 = load ptr, ptr %2, align 8
  %4 = getelementptr inbounds %struct.Vec_Flt_t_, ptr %3, i32 0, i32 1
  %5 = load i32, ptr %4, align 4
  ret i32 %5
}

; Function Attrs: nounwind uwtable
define internal i32 @Vec_FltEqual(ptr noundef %0, ptr noundef %1) #0 {
  %3 = alloca i32, align 4
  %4 = alloca ptr, align 8
  %5 = alloca ptr, align 8
  %6 = alloca i32, align 4
  store ptr %0, ptr %4, align 8
  store ptr %1, ptr %5, align 8
  %7 = load ptr, ptr %4, align 8
  %8 = getelementptr inbounds %struct.Vec_Flt_t_, ptr %7, i32 0, i32 1
  %9 = load i32, ptr %8, align 4
  %10 = load ptr, ptr %5, align 8
  %11 = getelementptr inbounds %struct.Vec_Flt_t_, ptr %10, i32 0, i32 1
  %12 = load i32, ptr %11, align 4
  %13 = icmp ne i32 %9, %12
  br i1 %13, label %14, label %15

14:                                               ; preds = %2
  store i32 0, ptr %3, align 4
  br label %44

15:                                               ; preds = %2
  store i32 0, ptr %6, align 4
  br label %16

16:                                               ; preds = %40, %15
  %17 = load i32, ptr %6, align 4
  %18 = load ptr, ptr %4, align 8
  %19 = getelementptr inbounds %struct.Vec_Flt_t_, ptr %18, i32 0, i32 1
  %20 = load i32, ptr %19, align 4
  %21 = icmp slt i32 %17, %20
  br i1 %21, label %22, label %43

22:                                               ; preds = %16
  %23 = load ptr, ptr %4, align 8
  %24 = getelementptr inbounds %struct.Vec_Flt_t_, ptr %23, i32 0, i32 2
  %25 = load ptr, ptr %24, align 8
  %26 = load i32, ptr %6, align 4
  %27 = sext i32 %26 to i64
  %28 = getelementptr inbounds float, ptr %25, i64 %27
  %29 = load float, ptr %28, align 4
  %30 = load ptr, ptr %5, align 8
  %31 = getelementptr inbounds %struct.Vec_Flt_t_, ptr %30, i32 0, i32 2
  %32 = load ptr, ptr %31, align 8
  %33 = load i32, ptr %6, align 4
  %34 = sext i32 %33 to i64
  %35 = getelementptr inbounds float, ptr %32, i64 %34
  %36 = load float, ptr %35, align 4
  %37 = fcmp une float %29, %36
  br i1 %37, label %38, label %39

38:                                               ; preds = %22
  store i32 0, ptr %3, align 4
  br label %44

39:                                               ; preds = %22
  br label %40

40:                                               ; preds = %39
  %41 = load i32, ptr %6, align 4
  %42 = add nsw i32 %41, 1
  store i32 %42, ptr %6, align 4
  br label %16, !llvm.loop !73

43:                                               ; preds = %16
  store i32 1, ptr %3, align 4
  br label %44

44:                                               ; preds = %43, %38, %14
  %45 = load i32, ptr %3, align 4
  ret i32 %45
}

; Function Attrs: nounwind uwtable
define internal ptr @Vec_FltDup(ptr noundef %0) #0 {
  %2 = alloca ptr, align 8
  %3 = alloca ptr, align 8
  store ptr %0, ptr %2, align 8
  %4 = call noalias ptr @malloc(i64 noundef 16) #12
  store ptr %4, ptr %3, align 8
  %5 = load ptr, ptr %2, align 8
  %6 = getelementptr inbounds %struct.Vec_Flt_t_, ptr %5, i32 0, i32 1
  %7 = load i32, ptr %6, align 4
  %8 = load ptr, ptr %3, align 8
  %9 = getelementptr inbounds %struct.Vec_Flt_t_, ptr %8, i32 0, i32 1
  store i32 %7, ptr %9, align 4
  %10 = load ptr, ptr %2, align 8
  %11 = getelementptr inbounds %struct.Vec_Flt_t_, ptr %10, i32 0, i32 0
  %12 = load i32, ptr %11, align 8
  %13 = load ptr, ptr %3, align 8
  %14 = getelementptr inbounds %struct.Vec_Flt_t_, ptr %13, i32 0, i32 0
  store i32 %12, ptr %14, align 8
  %15 = load ptr, ptr %3, align 8
  %16 = getelementptr inbounds %struct.Vec_Flt_t_, ptr %15, i32 0, i32 0
  %17 = load i32, ptr %16, align 8
  %18 = icmp ne i32 %17, 0
  br i1 %18, label %19, label %26

19:                                               ; preds = %1
  %20 = load ptr, ptr %3, align 8
  %21 = getelementptr inbounds %struct.Vec_Flt_t_, ptr %20, i32 0, i32 0
  %22 = load i32, ptr %21, align 8
  %23 = sext i32 %22 to i64
  %24 = mul i64 4, %23
  %25 = call noalias ptr @malloc(i64 noundef %24) #12
  br label %27

26:                                               ; preds = %1
  br label %27

27:                                               ; preds = %26, %19
  %28 = phi ptr [ %25, %19 ], [ null, %26 ]
  %29 = load ptr, ptr %3, align 8
  %30 = getelementptr inbounds %struct.Vec_Flt_t_, ptr %29, i32 0, i32 2
  store ptr %28, ptr %30, align 8
  %31 = load ptr, ptr %3, align 8
  %32 = getelementptr inbounds %struct.Vec_Flt_t_, ptr %31, i32 0, i32 2
  %33 = load ptr, ptr %32, align 8
  %34 = load ptr, ptr %2, align 8
  %35 = getelementptr inbounds %struct.Vec_Flt_t_, ptr %34, i32 0, i32 2
  %36 = load ptr, ptr %35, align 8
  %37 = load ptr, ptr %2, align 8
  %38 = getelementptr inbounds %struct.Vec_Flt_t_, ptr %37, i32 0, i32 1
  %39 = load i32, ptr %38, align 4
  %40 = sext i32 %39 to i64
  %41 = mul i64 4, %40
  call void @llvm.memcpy.p0.p0.i64(ptr align 4 %33, ptr align 4 %36, i64 %41, i1 false)
  %42 = load ptr, ptr %3, align 8
  ret ptr %42
}

; Function Attrs: nounwind uwtable
define internal void @Vec_PtrShrink(ptr noundef %0, i32 noundef %1) #0 {
  %3 = alloca ptr, align 8
  %4 = alloca i32, align 4
  store ptr %0, ptr %3, align 8
  store i32 %1, ptr %4, align 4
  %5 = load i32, ptr %4, align 4
  %6 = load ptr, ptr %3, align 8
  %7 = getelementptr inbounds %struct.Vec_Ptr_t_, ptr %6, i32 0, i32 1
  store i32 %5, ptr %7, align 4
  ret void
}

; Function Attrs: nounwind uwtable
define internal ptr @Vec_PtrEntry(ptr noundef %0, i32 noundef %1) #0 {
  %3 = alloca ptr, align 8
  %4 = alloca i32, align 4
  store ptr %0, ptr %3, align 8
  store i32 %1, ptr %4, align 4
  %5 = load ptr, ptr %3, align 8
  %6 = getelementptr inbounds %struct.Vec_Ptr_t_, ptr %5, i32 0, i32 2
  %7 = load ptr, ptr %6, align 8
  %8 = load i32, ptr %4, align 4
  %9 = sext i32 %8 to i64
  %10 = getelementptr inbounds ptr, ptr %7, i64 %9
  %11 = load ptr, ptr %10, align 8
  ret ptr %11
}

; Function Attrs: nounwind uwtable
define internal i32 @Vec_PtrSize(ptr noundef %0) #0 {
  %2 = alloca ptr, align 8
  store ptr %0, ptr %2, align 8
  %3 = load ptr, ptr %2, align 8
  %4 = getelementptr inbounds %struct.Vec_Ptr_t_, ptr %3, i32 0, i32 1
  %5 = load i32, ptr %4, align 4
  ret i32 %5
}

; Function Attrs: nounwind uwtable
define i32 @Scl_LibertyComputeWorstCase(ptr noundef %0, ptr noundef %1, ptr noundef %2, ptr noundef %3) #0 {
  %5 = alloca i32, align 4
  %6 = alloca ptr, align 8
  %7 = alloca ptr, align 8
  %8 = alloca ptr, align 8
  %9 = alloca ptr, align 8
  %10 = alloca ptr, align 8
  %11 = alloca ptr, align 8
  %12 = alloca ptr, align 8
  %13 = alloca ptr, align 8
  %14 = alloca ptr, align 8
  %15 = alloca ptr, align 8
  %16 = alloca i32, align 4
  %17 = alloca i32, align 4
  %18 = alloca i32, align 4
  %19 = alloca float, align 4
  store ptr %0, ptr %6, align 8
  store ptr %1, ptr %7, align 8
  store ptr %2, ptr %8, align 8
  store ptr %3, ptr %9, align 8
  %20 = load ptr, ptr %6, align 8
  %21 = call i32 @Vec_PtrSize(ptr noundef %20)
  %22 = sdiv i32 %21, 3
  store i32 %22, ptr %18, align 4
  %23 = load i32, ptr %18, align 4
  %24 = icmp eq i32 %23, 1
  br i1 %24, label %25, label %36

25:                                               ; preds = %4
  %26 = load ptr, ptr %6, align 8
  %27 = call ptr @Vec_PtrEntry(ptr noundef %26, i32 noundef 0)
  %28 = load ptr, ptr %7, align 8
  store ptr %27, ptr %28, align 8
  %29 = load ptr, ptr %6, align 8
  %30 = call ptr @Vec_PtrEntry(ptr noundef %29, i32 noundef 1)
  %31 = load ptr, ptr %8, align 8
  store ptr %30, ptr %31, align 8
  %32 = load ptr, ptr %6, align 8
  %33 = call ptr @Vec_PtrEntry(ptr noundef %32, i32 noundef 2)
  %34 = load ptr, ptr %9, align 8
  store ptr %33, ptr %34, align 8
  %35 = load ptr, ptr %6, align 8
  call void @Vec_PtrShrink(ptr noundef %35, i32 noundef 0)
  store i32 1, ptr %5, align 4
  br label %114

36:                                               ; preds = %4
  %37 = load ptr, ptr %6, align 8
  %38 = call ptr @Vec_PtrEntry(ptr noundef %37, i32 noundef 0)
  %39 = call ptr @Vec_FltDup(ptr noundef %38)
  store ptr %39, ptr %10, align 8
  %40 = load ptr, ptr %6, align 8
  %41 = call ptr @Vec_PtrEntry(ptr noundef %40, i32 noundef 1)
  %42 = call ptr @Vec_FltDup(ptr noundef %41)
  store ptr %42, ptr %11, align 8
  %43 = load ptr, ptr %6, align 8
  %44 = call ptr @Vec_PtrEntry(ptr noundef %43, i32 noundef 2)
  %45 = call ptr @Vec_FltDup(ptr noundef %44)
  store ptr %45, ptr %12, align 8
  store i32 1, ptr %16, align 4
  br label %46

46:                                               ; preds = %104, %36
  %47 = load i32, ptr %16, align 4
  %48 = load i32, ptr %18, align 4
  %49 = icmp slt i32 %47, %48
  br i1 %49, label %50, label %107

50:                                               ; preds = %46
  %51 = load ptr, ptr %6, align 8
  %52 = load i32, ptr %16, align 4
  %53 = mul nsw i32 %52, 3
  %54 = add nsw i32 %53, 0
  %55 = call ptr @Vec_PtrEntry(ptr noundef %51, i32 noundef %54)
  store ptr %55, ptr %13, align 8
  %56 = load ptr, ptr %6, align 8
  %57 = load i32, ptr %16, align 4
  %58 = mul nsw i32 %57, 3
  %59 = add nsw i32 %58, 1
  %60 = call ptr @Vec_PtrEntry(ptr noundef %56, i32 noundef %59)
  store ptr %60, ptr %14, align 8
  %61 = load ptr, ptr %6, align 8
  %62 = load i32, ptr %16, align 4
  %63 = mul nsw i32 %62, 3
  %64 = add nsw i32 %63, 2
  %65 = call ptr @Vec_PtrEntry(ptr noundef %61, i32 noundef %64)
  store ptr %65, ptr %15, align 8
  %66 = load ptr, ptr %13, align 8
  %67 = load ptr, ptr %10, align 8
  %68 = call i32 @Vec_FltEqual(ptr noundef %66, ptr noundef %67)
  %69 = icmp ne i32 %68, 0
  br i1 %69, label %71, label %70

70:                                               ; preds = %50
  br label %104

71:                                               ; preds = %50
  %72 = load ptr, ptr %14, align 8
  %73 = load ptr, ptr %11, align 8
  %74 = call i32 @Vec_FltEqual(ptr noundef %72, ptr noundef %73)
  %75 = icmp ne i32 %74, 0
  br i1 %75, label %77, label %76

76:                                               ; preds = %71
  br label %104

77:                                               ; preds = %71
  store i32 0, ptr %17, align 4
  br label %78

78:                                               ; preds = %100, %77
  %79 = load i32, ptr %17, align 4
  %80 = load ptr, ptr %15, align 8
  %81 = call i32 @Vec_FltSize(ptr noundef %80)
  %82 = icmp slt i32 %79, %81
  br i1 %82, label %83, label %87

83:                                               ; preds = %78
  %84 = load ptr, ptr %15, align 8
  %85 = load i32, ptr %17, align 4
  %86 = call float @Vec_FltEntry(ptr noundef %84, i32 noundef %85)
  store float %86, ptr %19, align 4
  br label %87

87:                                               ; preds = %83, %78
  %88 = phi i1 [ false, %78 ], [ true, %83 ]
  br i1 %88, label %89, label %103

89:                                               ; preds = %87
  %90 = load ptr, ptr %12, align 8
  %91 = load i32, ptr %17, align 4
  %92 = call float @Vec_FltEntry(ptr noundef %90, i32 noundef %91)
  %93 = load float, ptr %19, align 4
  %94 = fcmp olt float %92, %93
  br i1 %94, label %95, label %99

95:                                               ; preds = %89
  %96 = load ptr, ptr %12, align 8
  %97 = load i32, ptr %17, align 4
  %98 = load float, ptr %19, align 4
  call void @Vec_FltWriteEntry(ptr noundef %96, i32 noundef %97, float noundef %98)
  br label %99

99:                                               ; preds = %95, %89
  br label %100

100:                                              ; preds = %99
  %101 = load i32, ptr %17, align 4
  %102 = add nsw i32 %101, 1
  store i32 %102, ptr %17, align 4
  br label %78, !llvm.loop !71

103:                                              ; preds = %87
  br label %104

104:                                              ; preds = %103, %76, %70
  %105 = load i32, ptr %16, align 4
  %106 = add nsw i32 %105, 1
  store i32 %106, ptr %16, align 4
  br label %46, !llvm.loop !72

107:                                              ; preds = %46
  %108 = load ptr, ptr %10, align 8
  %109 = load ptr, ptr %7, align 8
  store ptr %108, ptr %109, align 8
  %110 = load ptr, ptr %11, align 8
  %111 = load ptr, ptr %8, align 8
  store ptr %110, ptr %111, align 8
  %112 = load ptr, ptr %12, align 8
  %113 = load ptr, ptr %9, align 8
  store ptr %112, ptr %113, align 8
  store i32 1, ptr %5, align 4
  br label %114

114:                                              ; preds = %107, %25
  %115 = load i32, ptr %5, align 4
  ret i32 %115
}