; Function Attrs: nofree nounwind uwtable
define noundef i32 @Scl_LibertyComputeWorstCase(ptr noundef captures(none) %0, ptr noundef writeonly captures(none) %1, ptr noundef writeonly captures(none) %2, ptr noundef writeonly captures(none) %3) local_unnamed_addr #0 {
  %5 = getelementptr i8, ptr %0, i64 4
  %.val48 = load i32, ptr %5, align 4
  %6 = sdiv i32 %.val48, 3
  %.off = add i32 %.val48, -3
  %7 = icmp ult i32 %.off, 3
  %8 = getelementptr i8, ptr %0, i64 8
  %.val57 = load ptr, ptr %8, align 8
  %9 = load ptr, ptr %.val57, align 8
  br i1 %7, label %10, label %15

10:                                               ; preds = %4
  store ptr %9, ptr %1, align 8
  %.val56 = load ptr, ptr %8, align 8
  %11 = getelementptr inbounds nuw i8, ptr %.val56, i64 8
  %12 = load ptr, ptr %11, align 8
  store ptr %12, ptr %2, align 8
  %.val55 = load ptr, ptr %8, align 8
  %13 = getelementptr inbounds nuw i8, ptr %.val55, i64 16
  %14 = load ptr, ptr %13, align 8
  store ptr %14, ptr %3, align 8
  store i32 0, ptr %5, align 4
  br label %108

15:                                               ; preds = %4
  %16 = tail call noalias dereferenceable_or_null(16) ptr @malloc(i64 noundef 16) #28
  %17 = getelementptr inbounds nuw i8, ptr %9, i64 4
  %18 = load i32, ptr %17, align 4
  %19 = getelementptr inbounds nuw i8, ptr %16, i64 4
  store i32 %18, ptr %19, align 4
  %20 = load i32, ptr %9, align 8
  store i32 %20, ptr %16, align 8
  %.not.i = icmp eq i32 %20, 0
  br i1 %.not.i, label %Vec_FltDup.exit, label %21

21:                                               ; preds = %15
  %22 = sext i32 %20 to i64
  %23 = shl nsw i64 %22, 2
  %24 = tail call noalias ptr @malloc(i64 noundef %23) #28
  br label %Vec_FltDup.exit

Vec_FltDup.exit:                                  ; preds = %15, %21
  %25 = phi ptr [ %24, %21 ], [ null, %15 ]
  %26 = getelementptr inbounds nuw i8, ptr %16, i64 8
  store ptr %25, ptr %26, align 8
  %27 = getelementptr inbounds nuw i8, ptr %9, i64 8
  %28 = load ptr, ptr %27, align 8
  %29 = sext i32 %18 to i64
  %30 = shl nsw i64 %29, 2
  tail call void @llvm.memcpy.p0.p0.i64(ptr align 4 %25, ptr align 4 %28, i64 %30, i1 false)
  %31 = getelementptr inbounds nuw i8, ptr %.val57, i64 8
  %32 = load ptr, ptr %31, align 8
  %33 = tail call noalias dereferenceable_or_null(16) ptr @malloc(i64 noundef 16) #28
  %34 = getelementptr inbounds nuw i8, ptr %32, i64 4
  %35 = load i32, ptr %34, align 4
  %36 = getelementptr inbounds nuw i8, ptr %33, i64 4
  store i32 %35, ptr %36, align 4
  %37 = load i32, ptr %32, align 8
  store i32 %37, ptr %33, align 8
  %.not.i59 = icmp eq i32 %37, 0
  br i1 %.not.i59, label %Vec_FltDup.exit60, label %38

38:                                               ; preds = %Vec_FltDup.exit
  %39 = sext i32 %37 to i64
  %40 = shl nsw i64 %39, 2
  %41 = tail call noalias ptr @malloc(i64 noundef %40) #28
  br label %Vec_FltDup.exit60

Vec_FltDup.exit60:                                ; preds = %Vec_FltDup.exit, %38
  %42 = phi ptr [ %41, %38 ], [ null, %Vec_FltDup.exit ]
  %43 = getelementptr inbounds nuw i8, ptr %33, i64 8
  store ptr %42, ptr %43, align 8
  %44 = getelementptr inbounds nuw i8, ptr %32, i64 8
  %45 = load ptr, ptr %44, align 8
  %46 = sext i32 %35 to i64
  %47 = shl nsw i64 %46, 2
  tail call void @llvm.memcpy.p0.p0.i64(ptr align 4 %42, ptr align 4 %45, i64 %47, i1 false)
  %48 = getelementptr inbounds nuw i8, ptr %.val57, i64 16
  %49 = load ptr, ptr %48, align 8
  %50 = tail call noalias dereferenceable_or_null(16) ptr @malloc(i64 noundef 16) #28
  %51 = getelementptr inbounds nuw i8, ptr %49, i64 4
  %52 = load i32, ptr %51, align 4
  %53 = getelementptr inbounds nuw i8, ptr %50, i64 4
  store i32 %52, ptr %53, align 4
  %54 = load i32, ptr %49, align 8
  store i32 %54, ptr %50, align 8
  %.not.i61 = icmp eq i32 %54, 0
  br i1 %.not.i61, label %Vec_FltDup.exit62, label %55

55:                                               ; preds = %Vec_FltDup.exit60
  %56 = sext i32 %54 to i64
  %57 = shl nsw i64 %56, 2
  %58 = tail call noalias ptr @malloc(i64 noundef %57) #28
  br label %Vec_FltDup.exit62

Vec_FltDup.exit62:                                ; preds = %Vec_FltDup.exit60, %55
  %.val46 = phi ptr [ %58, %55 ], [ null, %Vec_FltDup.exit60 ]
  %59 = getelementptr inbounds nuw i8, ptr %50, i64 8
  store ptr %.val46, ptr %59, align 8
  %60 = getelementptr inbounds nuw i8, ptr %49, i64 8
  %61 = load ptr, ptr %60, align 8
  %62 = sext i32 %52 to i64
  %63 = shl nsw i64 %62, 2
  tail call void @llvm.memcpy.p0.p0.i64(ptr align 4 %.val46, ptr align 4 %61, i64 %63, i1 false)
  %64 = icmp sgt i32 %.val48, 5
  br i1 %64, label %.lr.ph82.preheader, label %._crit_edge

.lr.ph82.preheader:                               ; preds = %Vec_FltDup.exit62
  %smax = tail call i32 @llvm.smax.i32(i32 %6, i32 2)
  %wide.trip.count = zext nneg i32 %smax to i64
  %.val51 = load ptr, ptr %8, align 8
  %65 = icmp sgt i32 %18, 0
  %wide.trip.count.i = zext nneg i32 %18 to i64
  %66 = icmp sgt i32 %35, 0
  %wide.trip.count.i68 = zext nneg i32 %35 to i64
  br label %.lr.ph82

.lr.ph82:                                         ; preds = %.lr.ph82.preheader, %.critedge
  %indvars.iv86 = phi i64 [ 1, %.lr.ph82.preheader ], [ %indvars.iv.next87, %.critedge ]
  %.idx = mul nuw nsw i64 %indvars.iv86, 24
  %67 = getelementptr inbounds nuw i8, ptr %.val51, i64 %.idx
  %68 = load ptr, ptr %67, align 8
  %69 = getelementptr inbounds nuw i8, ptr %67, i64 8
  %70 = load ptr, ptr %69, align 8
  %71 = getelementptr inbounds nuw i8, ptr %67, i64 16
  %72 = load ptr, ptr %71, align 8
  %73 = getelementptr inbounds nuw i8, ptr %68, i64 4
  %74 = load i32, ptr %73, align 4
  %.not.i63 = icmp eq i32 %74, %18
  br i1 %.not.i63, label %.preheader.i, label %.critedge

.preheader.i:                                     ; preds = %.lr.ph82
  br i1 %65, label %.lr.ph.i, label %Vec_FltEqual.exit

.lr.ph.i:                                         ; preds = %.preheader.i
  %75 = getelementptr inbounds nuw i8, ptr %68, i64 8
  %76 = load ptr, ptr %75, align 8
  br label %78

77:                                               ; preds = %78
  %indvars.iv.next.i = add nuw nsw i64 %indvars.iv.i, 1
  %exitcond.not.i = icmp eq i64 %indvars.iv.next.i, %wide.trip.count.i
  br i1 %exitcond.not.i, label %Vec_FltEqual.exit, label %78, !llvm.loop !71

78:                                               ; preds = %77, %.lr.ph.i
  %indvars.iv.i = phi i64 [ 0, %.lr.ph.i ], [ %indvars.iv.next.i, %77 ]
  %79 = getelementptr inbounds nuw float, ptr %76, i64 %indvars.iv.i
  %80 = load float, ptr %79, align 4
  %81 = getelementptr inbounds nuw float, ptr %25, i64 %indvars.iv.i
  %82 = load float, ptr %81, align 4
  %83 = fcmp une float %80, %82
  br i1 %83, label %.critedge, label %77

Vec_FltEqual.exit:                                ; preds = %77, %.preheader.i
  %84 = getelementptr inbounds nuw i8, ptr %70, i64 4
  %85 = load i32, ptr %84, align 4
  %.not.i64 = icmp eq i32 %85, %35
  br i1 %.not.i64, label %.preheader.i66, label %.critedge

.preheader.i66:                                   ; preds = %Vec_FltEqual.exit
  br i1 %66, label %.lr.ph.i67, label %Vec_FltEqual.exit72

.lr.ph.i67:                                       ; preds = %.preheader.i66
  %86 = getelementptr inbounds nuw i8, ptr %70, i64 8
  %87 = load ptr, ptr %86, align 8
  br label %89

88:                                               ; preds = %89
  %indvars.iv.next.i70 = add nuw nsw i64 %indvars.iv.i69, 1
  %exitcond.not.i71 = icmp eq i64 %indvars.iv.next.i70, %wide.trip.count.i68
  br i1 %exitcond.not.i71, label %Vec_FltEqual.exit72, label %89, !llvm.loop !71

89:                                               ; preds = %88, %.lr.ph.i67
  %indvars.iv.i69 = phi i64 [ 0, %.lr.ph.i67 ], [ %indvars.iv.next.i70, %88 ]
  %90 = getelementptr inbounds nuw float, ptr %87, i64 %indvars.iv.i69
  %91 = load float, ptr %90, align 4
  %92 = getelementptr inbounds nuw float, ptr %42, i64 %indvars.iv.i69
  %93 = load float, ptr %92, align 4
  %94 = fcmp une float %91, %93
  br i1 %94, label %.critedge, label %88

Vec_FltEqual.exit72:                              ; preds = %88, %.preheader.i66
  %95 = getelementptr i8, ptr %72, i64 4
  %.val79 = load i32, ptr %95, align 4
  %96 = icmp sgt i32 %.val79, 0
  br i1 %96, label %.lr.ph, label %.critedge

.lr.ph:                                           ; preds = %Vec_FltEqual.exit72
  %97 = getelementptr i8, ptr %72, i64 8
  br label %98

98:                                               ; preds = %.lr.ph, %105
  %.val89 = phi i32 [ %.val79, %.lr.ph ], [ %.val, %105 ]
  %indvars.iv = phi i64 [ 0, %.lr.ph ], [ %indvars.iv.next, %105 ]
  %.val47 = load ptr, ptr %97, align 8
  %99 = getelementptr inbounds nuw float, ptr %.val47, i64 %indvars.iv
  %100 = load float, ptr %99, align 4
  %101 = getelementptr inbounds nuw float, ptr %.val46, i64 %indvars.iv
  %102 = load float, ptr %101, align 4
  %103 = fcmp olt float %102, %100
  br i1 %103, label %104, label %105

104:                                              ; preds = %98
  store float %100, ptr %101, align 4
  %.val.pre = load i32, ptr %95, align 4
  br label %105

105:                                              ; preds = %98, %104
  %.val = phi i32 [ %.val89, %98 ], [ %.val.pre, %104 ]
  %indvars.iv.next = add nuw nsw i64 %indvars.iv, 1
  %106 = sext i32 %.val to i64
  %107 = icmp slt i64 %indvars.iv.next, %106
  br i1 %107, label %98, label %.critedge, !llvm.loop !72

.critedge:                                        ; preds = %78, %89, %105, %Vec_FltEqual.exit72, %Vec_FltEqual.exit, %.lr.ph82
  %indvars.iv.next87 = add nuw nsw i64 %indvars.iv86, 1
  %exitcond.not = icmp eq i64 %indvars.iv.next87, %wide.trip.count
  br i1 %exitcond.not, label %._crit_edge, label %.lr.ph82, !llvm.loop !73

._crit_edge:                                      ; preds = %.critedge, %Vec_FltDup.exit62
  store ptr %16, ptr %1, align 8
  store ptr %33, ptr %2, align 8
  store ptr %50, ptr %3, align 8
  br label %108

108:                                              ; preds = %._crit_edge, %10
  ret i32 1
}